
IPv6.elf:     file format elf32-avr

Sections:
Idx Name          Size      VMA       LMA       File off  Algn
  0 .text         0000056e  00000000  00000000  00000074  2**1
                  CONTENTS, ALLOC, LOAD, READONLY, CODE
  1 .bss          00000009  00800100  00800100  000005e2  2**0
                  ALLOC
  2 .stab         000005c4  00000000  00000000  000005e4  2**2
                  CONTENTS, READONLY, DEBUGGING
  3 .stabstr      00000c61  00000000  00000000  00000ba8  2**0
                  CONTENTS, READONLY, DEBUGGING

Disassembly of section .text:

00000000 <__vectors>:
   0:	0c 94 61 00 	jmp	0xc2	; 0xc2 <__ctors_end>
   4:	0c 94 7e 00 	jmp	0xfc	; 0xfc <__bad_interrupt>
   8:	0c 94 7e 00 	jmp	0xfc	; 0xfc <__bad_interrupt>
   c:	0c 94 7e 00 	jmp	0xfc	; 0xfc <__bad_interrupt>
  10:	0c 94 7e 00 	jmp	0xfc	; 0xfc <__bad_interrupt>
  14:	0c 94 7e 00 	jmp	0xfc	; 0xfc <__bad_interrupt>
  18:	0c 94 7e 00 	jmp	0xfc	; 0xfc <__bad_interrupt>
  1c:	0c 94 7e 00 	jmp	0xfc	; 0xfc <__bad_interrupt>
  20:	0c 94 7e 00 	jmp	0xfc	; 0xfc <__bad_interrupt>
  24:	0c 94 7e 00 	jmp	0xfc	; 0xfc <__bad_interrupt>
  28:	0c 94 7e 00 	jmp	0xfc	; 0xfc <__bad_interrupt>
  2c:	0c 94 7e 00 	jmp	0xfc	; 0xfc <__bad_interrupt>
  30:	0c 94 7e 00 	jmp	0xfc	; 0xfc <__bad_interrupt>
  34:	0c 94 7e 00 	jmp	0xfc	; 0xfc <__bad_interrupt>
  38:	0c 94 7e 00 	jmp	0xfc	; 0xfc <__bad_interrupt>
  3c:	0c 94 7e 00 	jmp	0xfc	; 0xfc <__bad_interrupt>
  40:	0c 94 b5 00 	jmp	0x16a	; 0x16a <__vector_16>
  44:	0c 94 7e 00 	jmp	0xfc	; 0xfc <__bad_interrupt>
  48:	0c 94 7e 00 	jmp	0xfc	; 0xfc <__bad_interrupt>
  4c:	0c 94 7e 00 	jmp	0xfc	; 0xfc <__bad_interrupt>
  50:	0c 94 7e 00 	jmp	0xfc	; 0xfc <__bad_interrupt>
  54:	0c 94 7e 00 	jmp	0xfc	; 0xfc <__bad_interrupt>
  58:	0c 94 7e 00 	jmp	0xfc	; 0xfc <__bad_interrupt>
  5c:	0c 94 7e 00 	jmp	0xfc	; 0xfc <__bad_interrupt>
  60:	0c 94 7e 00 	jmp	0xfc	; 0xfc <__bad_interrupt>
  64:	0c 94 7e 00 	jmp	0xfc	; 0xfc <__bad_interrupt>

00000068 <port_to_mode_PGM>:
  68:	00 00 00 00 24 00 27 00 2a 00                       ....$.'.*.

00000072 <port_to_output_PGM>:
  72:	00 00 00 00 25 00 28 00 2b 00                       ....%.(.+.

0000007c <port_to_input_PGM>:
  7c:	00 00 00 00 23 00 26 00 29 00                       ....#.&.).

00000086 <digital_pin_to_port_PGM>:
  86:	04 04 04 04 04 04 04 04 02 02 02 02 02 02 03 03     ................
  96:	03 03 03 03                                         ....

0000009a <digital_pin_to_bit_mask_PGM>:
  9a:	01 02 04 08 10 20 40 80 01 02 04 08 10 20 01 02     ..... @...... ..
  aa:	04 08 10 20                                         ... 

000000ae <digital_pin_to_timer_PGM>:
  ae:	00 00 00 07 00 02 01 00 00 03 04 06 00 00 00 00     ................
  be:	00 00 00 00                                         ....

000000c2 <__ctors_end>:
  c2:	11 24       	eor	r1, r1
  c4:	1f be       	out	0x3f, r1	; 63
  c6:	cf ef       	ldi	r28, 0xFF	; 255
  c8:	d8 e0       	ldi	r29, 0x08	; 8
  ca:	de bf       	out	0x3e, r29	; 62
  cc:	cd bf       	out	0x3d, r28	; 61

000000ce <__do_copy_data>:
  ce:	11 e0       	ldi	r17, 0x01	; 1
  d0:	a0 e0       	ldi	r26, 0x00	; 0
  d2:	b1 e0       	ldi	r27, 0x01	; 1
  d4:	ee e6       	ldi	r30, 0x6E	; 110
  d6:	f5 e0       	ldi	r31, 0x05	; 5
  d8:	02 c0       	rjmp	.+4      	; 0xde <.do_copy_data_start>

000000da <.do_copy_data_loop>:
  da:	05 90       	lpm	r0, Z+
  dc:	0d 92       	st	X+, r0

000000de <.do_copy_data_start>:
  de:	a0 30       	cpi	r26, 0x00	; 0
  e0:	b1 07       	cpc	r27, r17
  e2:	d9 f7       	brne	.-10     	; 0xda <.do_copy_data_loop>

000000e4 <__do_clear_bss>:
  e4:	11 e0       	ldi	r17, 0x01	; 1
  e6:	a0 e0       	ldi	r26, 0x00	; 0
  e8:	b1 e0       	ldi	r27, 0x01	; 1
  ea:	01 c0       	rjmp	.+2      	; 0xee <.do_clear_bss_start>

000000ec <.do_clear_bss_loop>:
  ec:	1d 92       	st	X+, r1

000000ee <.do_clear_bss_start>:
  ee:	a9 30       	cpi	r26, 0x09	; 9
  f0:	b1 07       	cpc	r27, r17
  f2:	e1 f7       	brne	.-8      	; 0xec <.do_clear_bss_loop>
  f4:	0e 94 a6 00 	call	0x14c	; 0x14c <main>
  f8:	0c 94 b5 02 	jmp	0x56a	; 0x56a <_exit>

000000fc <__bad_interrupt>:
  fc:	0c 94 00 00 	jmp	0	; 0x0 <__vectors>

00000100 <loop>:
void setup()   {
  pinMode(13, OUTPUT);
}


void loop()
 100:	df 93       	push	r29
 102:	cf 93       	push	r28
 104:	cd b7       	in	r28, 0x3d	; 61
 106:	de b7       	in	r29, 0x3e	; 62
{

	digitalWrite(13, HIGH);
 108:	8d e0       	ldi	r24, 0x0D	; 13
 10a:	61 e0       	ldi	r22, 0x01	; 1
 10c:	0e 94 0e 02 	call	0x41c	; 0x41c <digitalWrite>
	delay(100);
 110:	64 e6       	ldi	r22, 0x64	; 100
 112:	70 e0       	ldi	r23, 0x00	; 0
 114:	80 e0       	ldi	r24, 0x00	; 0
 116:	90 e0       	ldi	r25, 0x00	; 0
 118:	0e 94 31 01 	call	0x262	; 0x262 <delay>
	digitalWrite(13, LOW);
 11c:	8d e0       	ldi	r24, 0x0D	; 13
 11e:	60 e0       	ldi	r22, 0x00	; 0
 120:	0e 94 0e 02 	call	0x41c	; 0x41c <digitalWrite>
	delay(1000);
 124:	68 ee       	ldi	r22, 0xE8	; 232
 126:	73 e0       	ldi	r23, 0x03	; 3
 128:	80 e0       	ldi	r24, 0x00	; 0
 12a:	90 e0       	ldi	r25, 0x00	; 0
 12c:	0e 94 31 01 	call	0x262	; 0x262 <delay>

}
 130:	cf 91       	pop	r28
 132:	df 91       	pop	r29
 134:	08 95       	ret

00000136 <setup>:
 *      Author: Savi
 */

#include <Arduino.h>

void setup()   {
 136:	df 93       	push	r29
 138:	cf 93       	push	r28
 13a:	cd b7       	in	r28, 0x3d	; 61
 13c:	de b7       	in	r29, 0x3e	; 62
  pinMode(13, OUTPUT);
 13e:	8d e0       	ldi	r24, 0x0D	; 13
 140:	61 e0       	ldi	r22, 0x01	; 1
 142:	0e 94 cf 01 	call	0x39e	; 0x39e <pinMode>
}
 146:	cf 91       	pop	r28
 148:	df 91       	pop	r29
 14a:	08 95       	ret

0000014c <main>:
 14c:	cf 93       	push	r28
 14e:	df 93       	push	r29
 150:	0e 94 94 01 	call	0x328	; 0x328 <init>
 154:	0e 94 9b 00 	call	0x136	; 0x136 <setup>
 158:	c0 e0       	ldi	r28, 0x00	; 0
 15a:	d0 e0       	ldi	r29, 0x00	; 0
 15c:	0e 94 80 00 	call	0x100	; 0x100 <loop>
 160:	20 97       	sbiw	r28, 0x00	; 0
 162:	e1 f3       	breq	.-8      	; 0x15c <main+0x10>
 164:	0e 94 00 00 	call	0	; 0x0 <__vectors>
 168:	f9 cf       	rjmp	.-14     	; 0x15c <main+0x10>

0000016a <__vector_16>:
 16a:	1f 92       	push	r1
 16c:	0f 92       	push	r0
 16e:	0f b6       	in	r0, 0x3f	; 63
 170:	0f 92       	push	r0
 172:	11 24       	eor	r1, r1
 174:	2f 93       	push	r18
 176:	3f 93       	push	r19
 178:	8f 93       	push	r24
 17a:	9f 93       	push	r25
 17c:	af 93       	push	r26
 17e:	bf 93       	push	r27
 180:	80 91 04 01 	lds	r24, 0x0104
 184:	90 91 05 01 	lds	r25, 0x0105
 188:	a0 91 06 01 	lds	r26, 0x0106
 18c:	b0 91 07 01 	lds	r27, 0x0107
 190:	30 91 08 01 	lds	r19, 0x0108
 194:	01 96       	adiw	r24, 0x01	; 1
 196:	a1 1d       	adc	r26, r1
 198:	b1 1d       	adc	r27, r1
 19a:	23 2f       	mov	r18, r19
 19c:	2d 5f       	subi	r18, 0xFD	; 253
 19e:	2d 37       	cpi	r18, 0x7D	; 125
 1a0:	20 f0       	brcs	.+8      	; 0x1aa <__vector_16+0x40>
 1a2:	2d 57       	subi	r18, 0x7D	; 125
 1a4:	01 96       	adiw	r24, 0x01	; 1
 1a6:	a1 1d       	adc	r26, r1
 1a8:	b1 1d       	adc	r27, r1
 1aa:	20 93 08 01 	sts	0x0108, r18
 1ae:	80 93 04 01 	sts	0x0104, r24
 1b2:	90 93 05 01 	sts	0x0105, r25
 1b6:	a0 93 06 01 	sts	0x0106, r26
 1ba:	b0 93 07 01 	sts	0x0107, r27
 1be:	80 91 00 01 	lds	r24, 0x0100
 1c2:	90 91 01 01 	lds	r25, 0x0101
 1c6:	a0 91 02 01 	lds	r26, 0x0102
 1ca:	b0 91 03 01 	lds	r27, 0x0103
 1ce:	01 96       	adiw	r24, 0x01	; 1
 1d0:	a1 1d       	adc	r26, r1
 1d2:	b1 1d       	adc	r27, r1
 1d4:	80 93 00 01 	sts	0x0100, r24
 1d8:	90 93 01 01 	sts	0x0101, r25
 1dc:	a0 93 02 01 	sts	0x0102, r26
 1e0:	b0 93 03 01 	sts	0x0103, r27
 1e4:	bf 91       	pop	r27
 1e6:	af 91       	pop	r26
 1e8:	9f 91       	pop	r25
 1ea:	8f 91       	pop	r24
 1ec:	3f 91       	pop	r19
 1ee:	2f 91       	pop	r18
 1f0:	0f 90       	pop	r0
 1f2:	0f be       	out	0x3f, r0	; 63
 1f4:	0f 90       	pop	r0
 1f6:	1f 90       	pop	r1
 1f8:	18 95       	reti

000001fa <millis>:
 1fa:	8f b7       	in	r24, 0x3f	; 63
 1fc:	f8 94       	cli
 1fe:	20 91 04 01 	lds	r18, 0x0104
 202:	30 91 05 01 	lds	r19, 0x0105
 206:	40 91 06 01 	lds	r20, 0x0106
 20a:	50 91 07 01 	lds	r21, 0x0107
 20e:	8f bf       	out	0x3f, r24	; 63
 210:	b9 01       	movw	r22, r18
 212:	ca 01       	movw	r24, r20
 214:	08 95       	ret

00000216 <micros>:
 216:	9f b7       	in	r25, 0x3f	; 63
 218:	f8 94       	cli
 21a:	20 91 00 01 	lds	r18, 0x0100
 21e:	30 91 01 01 	lds	r19, 0x0101
 222:	40 91 02 01 	lds	r20, 0x0102
 226:	50 91 03 01 	lds	r21, 0x0103
 22a:	86 b5       	in	r24, 0x26	; 38
 22c:	a8 9b       	sbis	0x15, 0	; 21
 22e:	06 c0       	rjmp	.+12     	; 0x23c <micros+0x26>
 230:	8f 3f       	cpi	r24, 0xFF	; 255
 232:	21 f0       	breq	.+8      	; 0x23c <micros+0x26>
 234:	2f 5f       	subi	r18, 0xFF	; 255
 236:	3f 4f       	sbci	r19, 0xFF	; 255
 238:	4f 4f       	sbci	r20, 0xFF	; 255
 23a:	5f 4f       	sbci	r21, 0xFF	; 255
 23c:	9f bf       	out	0x3f, r25	; 63
 23e:	54 2f       	mov	r21, r20
 240:	43 2f       	mov	r20, r19
 242:	32 2f       	mov	r19, r18
 244:	22 27       	eor	r18, r18
 246:	28 0f       	add	r18, r24
 248:	31 1d       	adc	r19, r1
 24a:	41 1d       	adc	r20, r1
 24c:	51 1d       	adc	r21, r1
 24e:	82 e0       	ldi	r24, 0x02	; 2
 250:	22 0f       	add	r18, r18
 252:	33 1f       	adc	r19, r19
 254:	44 1f       	adc	r20, r20
 256:	55 1f       	adc	r21, r21
 258:	8a 95       	dec	r24
 25a:	d1 f7       	brne	.-12     	; 0x250 <micros+0x3a>
 25c:	b9 01       	movw	r22, r18
 25e:	ca 01       	movw	r24, r20
 260:	08 95       	ret

00000262 <delay>:
 262:	9b 01       	movw	r18, r22
 264:	ac 01       	movw	r20, r24
 266:	7f b7       	in	r23, 0x3f	; 63
 268:	f8 94       	cli
 26a:	80 91 00 01 	lds	r24, 0x0100
 26e:	90 91 01 01 	lds	r25, 0x0101
 272:	a0 91 02 01 	lds	r26, 0x0102
 276:	b0 91 03 01 	lds	r27, 0x0103
 27a:	66 b5       	in	r22, 0x26	; 38
 27c:	a8 9b       	sbis	0x15, 0	; 21
 27e:	05 c0       	rjmp	.+10     	; 0x28a <delay+0x28>
 280:	6f 3f       	cpi	r22, 0xFF	; 255
 282:	19 f0       	breq	.+6      	; 0x28a <delay+0x28>
 284:	01 96       	adiw	r24, 0x01	; 1
 286:	a1 1d       	adc	r26, r1
 288:	b1 1d       	adc	r27, r1
 28a:	7f bf       	out	0x3f, r23	; 63
 28c:	ba 2f       	mov	r27, r26
 28e:	a9 2f       	mov	r26, r25
 290:	98 2f       	mov	r25, r24
 292:	88 27       	eor	r24, r24
 294:	86 0f       	add	r24, r22
 296:	91 1d       	adc	r25, r1
 298:	a1 1d       	adc	r26, r1
 29a:	b1 1d       	adc	r27, r1
 29c:	62 e0       	ldi	r22, 0x02	; 2
 29e:	88 0f       	add	r24, r24
 2a0:	99 1f       	adc	r25, r25
 2a2:	aa 1f       	adc	r26, r26
 2a4:	bb 1f       	adc	r27, r27
 2a6:	6a 95       	dec	r22
 2a8:	d1 f7       	brne	.-12     	; 0x29e <delay+0x3c>
 2aa:	bc 01       	movw	r22, r24
 2ac:	2d c0       	rjmp	.+90     	; 0x308 <delay+0xa6>
 2ae:	ff b7       	in	r31, 0x3f	; 63
 2b0:	f8 94       	cli
 2b2:	80 91 00 01 	lds	r24, 0x0100
 2b6:	90 91 01 01 	lds	r25, 0x0101
 2ba:	a0 91 02 01 	lds	r26, 0x0102
 2be:	b0 91 03 01 	lds	r27, 0x0103
 2c2:	e6 b5       	in	r30, 0x26	; 38
 2c4:	a8 9b       	sbis	0x15, 0	; 21
 2c6:	05 c0       	rjmp	.+10     	; 0x2d2 <delay+0x70>
 2c8:	ef 3f       	cpi	r30, 0xFF	; 255
 2ca:	19 f0       	breq	.+6      	; 0x2d2 <delay+0x70>
 2cc:	01 96       	adiw	r24, 0x01	; 1
 2ce:	a1 1d       	adc	r26, r1
 2d0:	b1 1d       	adc	r27, r1
 2d2:	ff bf       	out	0x3f, r31	; 63
 2d4:	ba 2f       	mov	r27, r26
 2d6:	a9 2f       	mov	r26, r25
 2d8:	98 2f       	mov	r25, r24
 2da:	88 27       	eor	r24, r24
 2dc:	8e 0f       	add	r24, r30
 2de:	91 1d       	adc	r25, r1
 2e0:	a1 1d       	adc	r26, r1
 2e2:	b1 1d       	adc	r27, r1
 2e4:	e2 e0       	ldi	r30, 0x02	; 2
 2e6:	88 0f       	add	r24, r24
 2e8:	99 1f       	adc	r25, r25
 2ea:	aa 1f       	adc	r26, r26
 2ec:	bb 1f       	adc	r27, r27
 2ee:	ea 95       	dec	r30
 2f0:	d1 f7       	brne	.-12     	; 0x2e6 <delay+0x84>
 2f2:	86 1b       	sub	r24, r22
 2f4:	97 0b       	sbc	r25, r23
 2f6:	88 5e       	subi	r24, 0xE8	; 232
 2f8:	93 40       	sbci	r25, 0x03	; 3
 2fa:	c8 f2       	brcs	.-78     	; 0x2ae <delay+0x4c>
 2fc:	21 50       	subi	r18, 0x01	; 1
 2fe:	30 40       	sbci	r19, 0x00	; 0
 300:	40 40       	sbci	r20, 0x00	; 0
 302:	50 40       	sbci	r21, 0x00	; 0
 304:	68 51       	subi	r22, 0x18	; 24
 306:	7c 4f       	sbci	r23, 0xFC	; 252
 308:	21 15       	cp	r18, r1
 30a:	31 05       	cpc	r19, r1
 30c:	41 05       	cpc	r20, r1
 30e:	51 05       	cpc	r21, r1
 310:	71 f6       	brne	.-100    	; 0x2ae <delay+0x4c>
 312:	08 95       	ret

00000314 <delayMicroseconds>:
 314:	01 97       	sbiw	r24, 0x01	; 1
 316:	39 f0       	breq	.+14     	; 0x326 <delayMicroseconds+0x12>
 318:	88 0f       	add	r24, r24
 31a:	99 1f       	adc	r25, r25
 31c:	88 0f       	add	r24, r24
 31e:	99 1f       	adc	r25, r25
 320:	02 97       	sbiw	r24, 0x02	; 2
 322:	01 97       	sbiw	r24, 0x01	; 1
 324:	f1 f7       	brne	.-4      	; 0x322 <delayMicroseconds+0xe>
 326:	08 95       	ret

00000328 <init>:
 328:	78 94       	sei
 32a:	84 b5       	in	r24, 0x24	; 36
 32c:	82 60       	ori	r24, 0x02	; 2
 32e:	84 bd       	out	0x24, r24	; 36
 330:	84 b5       	in	r24, 0x24	; 36
 332:	81 60       	ori	r24, 0x01	; 1
 334:	84 bd       	out	0x24, r24	; 36
 336:	85 b5       	in	r24, 0x25	; 37
 338:	82 60       	ori	r24, 0x02	; 2
 33a:	85 bd       	out	0x25, r24	; 37
 33c:	85 b5       	in	r24, 0x25	; 37
 33e:	81 60       	ori	r24, 0x01	; 1
 340:	85 bd       	out	0x25, r24	; 37
 342:	ee e6       	ldi	r30, 0x6E	; 110
 344:	f0 e0       	ldi	r31, 0x00	; 0
 346:	80 81       	ld	r24, Z
 348:	81 60       	ori	r24, 0x01	; 1
 34a:	80 83       	st	Z, r24
 34c:	e1 e8       	ldi	r30, 0x81	; 129
 34e:	f0 e0       	ldi	r31, 0x00	; 0
 350:	10 82       	st	Z, r1
 352:	80 81       	ld	r24, Z
 354:	82 60       	ori	r24, 0x02	; 2
 356:	80 83       	st	Z, r24
 358:	80 81       	ld	r24, Z
 35a:	81 60       	ori	r24, 0x01	; 1
 35c:	80 83       	st	Z, r24
 35e:	e0 e8       	ldi	r30, 0x80	; 128
 360:	f0 e0       	ldi	r31, 0x00	; 0
 362:	80 81       	ld	r24, Z
 364:	81 60       	ori	r24, 0x01	; 1
 366:	80 83       	st	Z, r24
 368:	e1 eb       	ldi	r30, 0xB1	; 177
 36a:	f0 e0       	ldi	r31, 0x00	; 0
 36c:	80 81       	ld	r24, Z
 36e:	84 60       	ori	r24, 0x04	; 4
 370:	80 83       	st	Z, r24
 372:	e0 eb       	ldi	r30, 0xB0	; 176
 374:	f0 e0       	ldi	r31, 0x00	; 0
 376:	80 81       	ld	r24, Z
 378:	81 60       	ori	r24, 0x01	; 1
 37a:	80 83       	st	Z, r24
 37c:	ea e7       	ldi	r30, 0x7A	; 122
 37e:	f0 e0       	ldi	r31, 0x00	; 0
 380:	80 81       	ld	r24, Z
 382:	84 60       	ori	r24, 0x04	; 4
 384:	80 83       	st	Z, r24
 386:	80 81       	ld	r24, Z
 388:	82 60       	ori	r24, 0x02	; 2
 38a:	80 83       	st	Z, r24
 38c:	80 81       	ld	r24, Z
 38e:	81 60       	ori	r24, 0x01	; 1
 390:	80 83       	st	Z, r24
 392:	80 81       	ld	r24, Z
 394:	80 68       	ori	r24, 0x80	; 128
 396:	80 83       	st	Z, r24
 398:	10 92 c1 00 	sts	0x00C1, r1
 39c:	08 95       	ret

0000039e <pinMode>:
 39e:	cf 93       	push	r28
 3a0:	df 93       	push	r29
 3a2:	48 2f       	mov	r20, r24
 3a4:	50 e0       	ldi	r21, 0x00	; 0
 3a6:	ca 01       	movw	r24, r20
 3a8:	86 56       	subi	r24, 0x66	; 102
 3aa:	9f 4f       	sbci	r25, 0xFF	; 255
 3ac:	fc 01       	movw	r30, r24
 3ae:	34 91       	lpm	r19, Z+
 3b0:	4a 57       	subi	r20, 0x7A	; 122
 3b2:	5f 4f       	sbci	r21, 0xFF	; 255
 3b4:	fa 01       	movw	r30, r20
 3b6:	84 91       	lpm	r24, Z+
 3b8:	88 23       	and	r24, r24
 3ba:	69 f1       	breq	.+90     	; 0x416 <pinMode+0x78>
 3bc:	90 e0       	ldi	r25, 0x00	; 0
 3be:	88 0f       	add	r24, r24
 3c0:	99 1f       	adc	r25, r25
 3c2:	fc 01       	movw	r30, r24
 3c4:	e8 59       	subi	r30, 0x98	; 152
 3c6:	ff 4f       	sbci	r31, 0xFF	; 255
 3c8:	a5 91       	lpm	r26, Z+
 3ca:	b4 91       	lpm	r27, Z+
 3cc:	fc 01       	movw	r30, r24
 3ce:	ee 58       	subi	r30, 0x8E	; 142
 3d0:	ff 4f       	sbci	r31, 0xFF	; 255
 3d2:	c5 91       	lpm	r28, Z+
 3d4:	d4 91       	lpm	r29, Z+
 3d6:	66 23       	and	r22, r22
 3d8:	51 f4       	brne	.+20     	; 0x3ee <pinMode+0x50>
 3da:	2f b7       	in	r18, 0x3f	; 63
 3dc:	f8 94       	cli
 3de:	8c 91       	ld	r24, X
 3e0:	93 2f       	mov	r25, r19
 3e2:	90 95       	com	r25
 3e4:	89 23       	and	r24, r25
 3e6:	8c 93       	st	X, r24
 3e8:	88 81       	ld	r24, Y
 3ea:	89 23       	and	r24, r25
 3ec:	0b c0       	rjmp	.+22     	; 0x404 <pinMode+0x66>
 3ee:	62 30       	cpi	r22, 0x02	; 2
 3f0:	61 f4       	brne	.+24     	; 0x40a <pinMode+0x6c>
 3f2:	2f b7       	in	r18, 0x3f	; 63
 3f4:	f8 94       	cli
 3f6:	8c 91       	ld	r24, X
 3f8:	93 2f       	mov	r25, r19
 3fa:	90 95       	com	r25
 3fc:	89 23       	and	r24, r25
 3fe:	8c 93       	st	X, r24
 400:	88 81       	ld	r24, Y
 402:	83 2b       	or	r24, r19
 404:	88 83       	st	Y, r24
 406:	2f bf       	out	0x3f, r18	; 63
 408:	06 c0       	rjmp	.+12     	; 0x416 <pinMode+0x78>
 40a:	9f b7       	in	r25, 0x3f	; 63
 40c:	f8 94       	cli
 40e:	8c 91       	ld	r24, X
 410:	83 2b       	or	r24, r19
 412:	8c 93       	st	X, r24
 414:	9f bf       	out	0x3f, r25	; 63
 416:	df 91       	pop	r29
 418:	cf 91       	pop	r28
 41a:	08 95       	ret

0000041c <digitalWrite>:
 41c:	48 2f       	mov	r20, r24
 41e:	50 e0       	ldi	r21, 0x00	; 0
 420:	ca 01       	movw	r24, r20
 422:	82 55       	subi	r24, 0x52	; 82
 424:	9f 4f       	sbci	r25, 0xFF	; 255
 426:	fc 01       	movw	r30, r24
 428:	24 91       	lpm	r18, Z+
 42a:	ca 01       	movw	r24, r20
 42c:	86 56       	subi	r24, 0x66	; 102
 42e:	9f 4f       	sbci	r25, 0xFF	; 255
 430:	fc 01       	movw	r30, r24
 432:	94 91       	lpm	r25, Z+
 434:	4a 57       	subi	r20, 0x7A	; 122
 436:	5f 4f       	sbci	r21, 0xFF	; 255
 438:	fa 01       	movw	r30, r20
 43a:	34 91       	lpm	r19, Z+
 43c:	33 23       	and	r19, r19
 43e:	09 f4       	brne	.+2      	; 0x442 <digitalWrite+0x26>
 440:	40 c0       	rjmp	.+128    	; 0x4c2 <digitalWrite+0xa6>
 442:	22 23       	and	r18, r18
 444:	51 f1       	breq	.+84     	; 0x49a <digitalWrite+0x7e>
 446:	23 30       	cpi	r18, 0x03	; 3
 448:	71 f0       	breq	.+28     	; 0x466 <digitalWrite+0x4a>
 44a:	24 30       	cpi	r18, 0x04	; 4
 44c:	28 f4       	brcc	.+10     	; 0x458 <digitalWrite+0x3c>
 44e:	21 30       	cpi	r18, 0x01	; 1
 450:	a1 f0       	breq	.+40     	; 0x47a <digitalWrite+0x5e>
 452:	22 30       	cpi	r18, 0x02	; 2
 454:	11 f5       	brne	.+68     	; 0x49a <digitalWrite+0x7e>
 456:	14 c0       	rjmp	.+40     	; 0x480 <digitalWrite+0x64>
 458:	26 30       	cpi	r18, 0x06	; 6
 45a:	b1 f0       	breq	.+44     	; 0x488 <digitalWrite+0x6c>
 45c:	27 30       	cpi	r18, 0x07	; 7
 45e:	c1 f0       	breq	.+48     	; 0x490 <digitalWrite+0x74>
 460:	24 30       	cpi	r18, 0x04	; 4
 462:	d9 f4       	brne	.+54     	; 0x49a <digitalWrite+0x7e>
 464:	04 c0       	rjmp	.+8      	; 0x46e <digitalWrite+0x52>
 466:	80 91 80 00 	lds	r24, 0x0080
 46a:	8f 77       	andi	r24, 0x7F	; 127
 46c:	03 c0       	rjmp	.+6      	; 0x474 <digitalWrite+0x58>
 46e:	80 91 80 00 	lds	r24, 0x0080
 472:	8f 7d       	andi	r24, 0xDF	; 223
 474:	80 93 80 00 	sts	0x0080, r24
 478:	10 c0       	rjmp	.+32     	; 0x49a <digitalWrite+0x7e>
 47a:	84 b5       	in	r24, 0x24	; 36
 47c:	8f 77       	andi	r24, 0x7F	; 127
 47e:	02 c0       	rjmp	.+4      	; 0x484 <digitalWrite+0x68>
 480:	84 b5       	in	r24, 0x24	; 36
 482:	8f 7d       	andi	r24, 0xDF	; 223
 484:	84 bd       	out	0x24, r24	; 36
 486:	09 c0       	rjmp	.+18     	; 0x49a <digitalWrite+0x7e>
 488:	80 91 b0 00 	lds	r24, 0x00B0
 48c:	8f 77       	andi	r24, 0x7F	; 127
 48e:	03 c0       	rjmp	.+6      	; 0x496 <digitalWrite+0x7a>
 490:	80 91 b0 00 	lds	r24, 0x00B0
 494:	8f 7d       	andi	r24, 0xDF	; 223
 496:	80 93 b0 00 	sts	0x00B0, r24
 49a:	e3 2f       	mov	r30, r19
 49c:	f0 e0       	ldi	r31, 0x00	; 0
 49e:	ee 0f       	add	r30, r30
 4a0:	ff 1f       	adc	r31, r31
 4a2:	ee 58       	subi	r30, 0x8E	; 142
 4a4:	ff 4f       	sbci	r31, 0xFF	; 255
 4a6:	a5 91       	lpm	r26, Z+
 4a8:	b4 91       	lpm	r27, Z+
 4aa:	2f b7       	in	r18, 0x3f	; 63
 4ac:	f8 94       	cli
 4ae:	66 23       	and	r22, r22
 4b0:	21 f4       	brne	.+8      	; 0x4ba <digitalWrite+0x9e>
 4b2:	8c 91       	ld	r24, X
 4b4:	90 95       	com	r25
 4b6:	89 23       	and	r24, r25
 4b8:	02 c0       	rjmp	.+4      	; 0x4be <digitalWrite+0xa2>
 4ba:	8c 91       	ld	r24, X
 4bc:	89 2b       	or	r24, r25
 4be:	8c 93       	st	X, r24
 4c0:	2f bf       	out	0x3f, r18	; 63
 4c2:	08 95       	ret

000004c4 <digitalRead>:
 4c4:	68 2f       	mov	r22, r24
 4c6:	70 e0       	ldi	r23, 0x00	; 0
 4c8:	cb 01       	movw	r24, r22
 4ca:	82 55       	subi	r24, 0x52	; 82
 4cc:	9f 4f       	sbci	r25, 0xFF	; 255
 4ce:	fc 01       	movw	r30, r24
 4d0:	24 91       	lpm	r18, Z+
 4d2:	cb 01       	movw	r24, r22
 4d4:	86 56       	subi	r24, 0x66	; 102
 4d6:	9f 4f       	sbci	r25, 0xFF	; 255
 4d8:	fc 01       	movw	r30, r24
 4da:	44 91       	lpm	r20, Z+
 4dc:	6a 57       	subi	r22, 0x7A	; 122
 4de:	7f 4f       	sbci	r23, 0xFF	; 255
 4e0:	fb 01       	movw	r30, r22
 4e2:	94 91       	lpm	r25, Z+
 4e4:	99 23       	and	r25, r25
 4e6:	19 f4       	brne	.+6      	; 0x4ee <digitalRead+0x2a>
 4e8:	20 e0       	ldi	r18, 0x00	; 0
 4ea:	30 e0       	ldi	r19, 0x00	; 0
 4ec:	3c c0       	rjmp	.+120    	; 0x566 <digitalRead+0xa2>
 4ee:	22 23       	and	r18, r18
 4f0:	51 f1       	breq	.+84     	; 0x546 <digitalRead+0x82>
 4f2:	23 30       	cpi	r18, 0x03	; 3
 4f4:	71 f0       	breq	.+28     	; 0x512 <digitalRead+0x4e>
 4f6:	24 30       	cpi	r18, 0x04	; 4
 4f8:	28 f4       	brcc	.+10     	; 0x504 <digitalRead+0x40>
 4fa:	21 30       	cpi	r18, 0x01	; 1
 4fc:	a1 f0       	breq	.+40     	; 0x526 <digitalRead+0x62>
 4fe:	22 30       	cpi	r18, 0x02	; 2
 500:	11 f5       	brne	.+68     	; 0x546 <digitalRead+0x82>
 502:	14 c0       	rjmp	.+40     	; 0x52c <digitalRead+0x68>
 504:	26 30       	cpi	r18, 0x06	; 6
 506:	b1 f0       	breq	.+44     	; 0x534 <digitalRead+0x70>
 508:	27 30       	cpi	r18, 0x07	; 7
 50a:	c1 f0       	breq	.+48     	; 0x53c <digitalRead+0x78>
 50c:	24 30       	cpi	r18, 0x04	; 4
 50e:	d9 f4       	brne	.+54     	; 0x546 <digitalRead+0x82>
 510:	04 c0       	rjmp	.+8      	; 0x51a <digitalRead+0x56>
 512:	80 91 80 00 	lds	r24, 0x0080
 516:	8f 77       	andi	r24, 0x7F	; 127
 518:	03 c0       	rjmp	.+6      	; 0x520 <digitalRead+0x5c>
 51a:	80 91 80 00 	lds	r24, 0x0080
 51e:	8f 7d       	andi	r24, 0xDF	; 223
 520:	80 93 80 00 	sts	0x0080, r24
 524:	10 c0       	rjmp	.+32     	; 0x546 <digitalRead+0x82>
 526:	84 b5       	in	r24, 0x24	; 36
 528:	8f 77       	andi	r24, 0x7F	; 127
 52a:	02 c0       	rjmp	.+4      	; 0x530 <digitalRead+0x6c>
 52c:	84 b5       	in	r24, 0x24	; 36
 52e:	8f 7d       	andi	r24, 0xDF	; 223
 530:	84 bd       	out	0x24, r24	; 36
 532:	09 c0       	rjmp	.+18     	; 0x546 <digitalRead+0x82>
 534:	80 91 b0 00 	lds	r24, 0x00B0
 538:	8f 77       	andi	r24, 0x7F	; 127
 53a:	03 c0       	rjmp	.+6      	; 0x542 <digitalRead+0x7e>
 53c:	80 91 b0 00 	lds	r24, 0x00B0
 540:	8f 7d       	andi	r24, 0xDF	; 223
 542:	80 93 b0 00 	sts	0x00B0, r24
 546:	89 2f       	mov	r24, r25
 548:	90 e0       	ldi	r25, 0x00	; 0
 54a:	88 0f       	add	r24, r24
 54c:	99 1f       	adc	r25, r25
 54e:	84 58       	subi	r24, 0x84	; 132
 550:	9f 4f       	sbci	r25, 0xFF	; 255
 552:	fc 01       	movw	r30, r24
 554:	a5 91       	lpm	r26, Z+
 556:	b4 91       	lpm	r27, Z+
 558:	8c 91       	ld	r24, X
 55a:	20 e0       	ldi	r18, 0x00	; 0
 55c:	30 e0       	ldi	r19, 0x00	; 0
 55e:	84 23       	and	r24, r20
 560:	11 f0       	breq	.+4      	; 0x566 <digitalRead+0xa2>
 562:	21 e0       	ldi	r18, 0x01	; 1
 564:	30 e0       	ldi	r19, 0x00	; 0
 566:	c9 01       	movw	r24, r18
 568:	08 95       	ret

0000056a <_exit>:
 56a:	f8 94       	cli

0000056c <__stop_program>:
 56c:	ff cf       	rjmp	.-2      	; 0x56c <__stop_program>
